(dp0
S'zmm24'
p1
I157
sS'gs'
p2
I34
sS'k4'
p3
I169
sS'k2'
p4
I167
sS'k0'
p5
I165
sS'tf'
p6
I41
sS'k7'
p7
I172
sS'k6'
p8
I171
sS'ymm9'
p9
I90
sS'ymm8'
p10
I89
sS'r14'
p11
I14
sS'r15'
p12
I15
sS'r12'
p13
I12
sS'r13'
p14
I13
sS'dh'
p15
I22
sS'r11'
p16
I11
sS'df'
p17
I43
sS'ymm0'
p18
I81
sS'ymm3'
p19
I84
sS'ymm2'
p20
I83
sS'ymm5'
p21
I86
sS'ymm4'
p22
I85
sS'ymm7'
p23
I88
sS'ymm6'
p24
I87
sS'dx'
p25
I2
sS'ds'
p26
I32
sS'ymm31'
p27
I132
sS'ymm30'
p28
I131
sS'dil'
p29
I27
sS'bpl'
p30
I25
sS'xmm10'
p31
I74
sS'xmm11'
p32
I75
sS'xmm12'
p33
I76
sS'xmm13'
p34
I77
sS'xmm14'
p35
I78
sS'xmm15'
p36
I79
sS'xmm16'
p37
I101
sS'xmm17'
p38
I102
sS'xmm18'
p39
I103
sS'xmm19'
p40
I104
sS'mm5'
p41
I61
sS'mm4'
p42
I60
sS'zf'
p43
I36
sS'mm6'
p44
I62
sS'mm1'
p45
I57
sS'mm0'
p46
I56
sS'mm3'
p47
I59
sS'mm2'
p48
I58
sS'ymm28'
p49
I129
sS'ymm29'
p50
I130
sS'fs'
p51
I33
sS'ymm20'
p52
I121
sS'ymm21'
p53
I122
sS'ymm22'
p54
I123
sS'ymm23'
p55
I124
sS'ymm24'
p56
I125
sS'ymm25'
p57
I126
sS'es'
p58
I29
sS'ymm27'
p59
I128
sS'bl'
p60
I19
sS'bh'
p61
I23
sS'xmm2'
p62
I66
sS'xmm3'
p63
I67
sS'xmm0'
p64
I64
sS'xmm1'
p65
I65
sS'bp'
p66
I5
sS'xmm7'
p67
I71
sS'xmm4'
p68
I68
sS'xmm5'
p69
I69
sS'xmm8'
p70
I72
sS'xmm9'
p71
I73
sS'bx'
p72
I3
sS'dl'
p73
I18
sS'of'
p74
I38
sS'r8'
p75
I8
sS'r9'
p76
I9
sS'xmm6'
p77
I70
sS'ch'
p78
I21
sS'cl'
p79
I17
sS'cf'
p80
I35
sS'fpstat'
p81
I54
sS'cx'
p82
I1
sS'cs'
p83
I30
sS'st4'
p84
I49
sS'st5'
p85
I50
sS'st6'
p86
I51
sS'st7'
p87
I52
sS'st0'
p88
I45
sS'st1'
p89
I46
sS'st2'
p90
I47
sS'ip'
p91
I28
sS'pf'
p92
I39
sS'mm7'
p93
I63
sS'xmm22'
p94
I107
sS'xmm29'
p95
I114
sS'xmm28'
p96
I113
sS'xmm21'
p97
I106
sS'mxcsr'
p98
I80
sS'xmm23'
p99
I108
sS'st3'
p100
I48
sS'xmm25'
p101
I110
sS'xmm24'
p102
I109
sS'xmm27'
p103
I112
sS'xmm26'
p104
I111
sS'zmm8'
p105
I141
sS'zmm9'
p106
I142
sS'zmm0'
p107
I133
sS'zmm1'
p108
I134
sS'zmm2'
p109
I135
sS'zmm3'
p110
I136
sS'zmm4'
p111
I137
sS'zmm5'
p112
I138
sS'zmm6'
p113
I139
sS'zmm7'
p114
I140
sS'zmm12'
p115
I145
sS'zmm13'
p116
I146
sS'zmm10'
p117
I143
sS'zmm11'
p118
I144
sS'zmm16'
p119
I149
sS'zmm17'
p120
I150
sS'zmm14'
p121
I147
sS'zmm15'
p122
I148
sS'zmm18'
p123
I151
sS'zmm19'
p124
I152
sS'zmm30'
p125
I163
sS'bnd0'
p126
I97
sS'bnd1'
p127
I98
sS'bnd2'
p128
I99
sS'bnd3'
p129
I100
sS'af'
p130
I40
sS'ah'
p131
I20
sS'xmm30'
p132
I115
sS'xmm31'
p133
I116
sS'al'
p134
I16
sS'spl'
p135
I24
sS'ax'
p136
I0
sS'if'
p137
I42
sS'r10'
p138
I10
sS'zmm29'
p139
I162
sS'zmm28'
p140
I161
sS'zmm27'
p141
I160
sS'zmm26'
p142
I159
sS'zmm25'
p143
I158
sS'di'
p144
I7
sS'zmm23'
p145
I156
sS'zmm22'
p146
I155
sS'zmm21'
p147
I154
sS'zmm20'
p148
I153
sS'k3'
p149
I168
sS'ymm1'
p150
I82
sS'k1'
p151
I166
sS'fptags'
p152
I55
sS'efl'
p153
I44
sS'ymm26'
p154
I127
sS'k5'
p155
I170
sS'xmm20'
p156
I105
sS'sil'
p157
I26
sS'fpctrl'
p158
I53
sS'ymm11'
p159
I92
sS'ymm10'
p160
I91
sS'ymm13'
p161
I94
sS'ymm12'
p162
I93
sS'ymm15'
p163
I96
sS'ymm14'
p164
I95
sS'ymm17'
p165
I118
sS'ymm16'
p166
I117
sS'ymm19'
p167
I120
sS'ymm18'
p168
I119
sS'ss'
p169
I31
sS'zmm31'
p170
I164
sS'sp'
p171
I4
sS'si'
p172
I6
sS'sf'
p173
I37
s.